; Function Attrs: nounwind sspstrong uwtable
define internal noundef i64 @rb_str_concat_multi(i32 noundef %0, ptr noundef readonly captures(none) %1, i64 noundef returned %2) #1 {
  %4 = inttoptr i64 %2 to ptr
  %5 = load i64, ptr %4, align 8, !tbaa !7
  %6 = and i64 %5, 575488
  %.not8.i = icmp eq i64 %6, 0
  br i1 %.not8.i, label %str_modifiable.exit, label %7, !prof !40

7:                                                ; preds = %3
  %8 = icmp ne i64 %2, 0
  %9 = and i64 %2, 7
  %10 = icmp eq i64 %9, 0
  %.not11.i = and i1 %8, %10
  %11 = and i64 %5, 31
  %12 = icmp eq i64 %11, 5
  %or.cond.i = and i1 %.not11.i, %12
  %13 = and i64 %5, 49152
  %14 = icmp ne i64 %13, 0
  %or.cond7.i = and i1 %14, %or.cond.i
  br i1 %or.cond7.i, label %15, label %CHILLED_STRING_P.exit.thread.i

15:                                               ; preds = %7
  tail call fastcc void @CHILLED_STRING_MUTATED(i64 noundef %2)
  br label %CHILLED_STRING_P.exit.thread.i

CHILLED_STRING_P.exit.thread.i:                   ; preds = %15, %7
  tail call fastcc void @rb_check_lockedtmp(i64 noundef %2)
  tail call fastcc void @rb_check_frozen_inline(i64 noundef %2) #35
  br label %str_modifiable.exit

str_modifiable.exit:                              ; preds = %3, %CHILLED_STRING_P.exit.thread.i
  %16 = icmp eq i32 %0, 1
  br i1 %16, label %17, label %20

17:                                               ; preds = %str_modifiable.exit
  %18 = load i64, ptr %1, align 8, !tbaa !26
  %19 = tail call i64 @rb_str_concat(i64 noundef %2, i64 noundef %18)
  br label %31

20:                                               ; preds = %str_modifiable.exit
  %21 = icmp sgt i32 %0, 1
  br i1 %21, label %22, label %31

22:                                               ; preds = %20
  %23 = tail call nonnull ptr @rb_ascii8bit_encoding() #29
  %24 = tail call fastcc noundef i64 @str_enc_new(i64 noundef 0, ptr noundef null, i64 noundef 0, ptr noundef nonnull %23)
  tail call void @rb_enc_copy(i64 noundef %24, i64 noundef %2) #29
  %wide.trip.count = zext nneg i32 %0 to i64
  br label %25

25:                                               ; preds = %22, %25
  %indvars.iv = phi i64 [ 0, %22 ], [ %indvars.iv.next, %25 ]
  %26 = getelementptr i64, ptr %1, i64 %indvars.iv
  %27 = load i64, ptr %26, align 8, !tbaa !26
  %28 = tail call i64 @rb_str_concat(i64 noundef %24, i64 noundef %27)
  %indvars.iv.next = add nuw nsw i64 %indvars.iv, 1
  %exitcond.not = icmp eq i64 %indvars.iv.next, %wide.trip.count
  br i1 %exitcond.not, label %29, label %25, !llvm.loop !638

29:                                               ; preds = %25
  %30 = tail call i64 @rb_str_buf_append(i64 noundef %2, i64 noundef %24)
  br label %31

31:                                               ; preds = %29, %20, %17
  ret i64 %2
}